Certificate:
    Data:
        Version: 3 (0x2)
        Serial Number: 1 (0x1)
        Signature Algorithm: sha1WithRSAEncryption
        Issuer: C=US, ST=WU, L=JIAN, O=WU, OU=WU, CN=woojean
        Validity
            Not Before: Apr 27 06:46:15 2017 GMT
            Not After : Apr 27 06:46:15 2022 GMT
        Subject: C=US, ST=WU, L=JIAN, O=WU, OU=JIAN, CN=woojean
        Subject Public Key Info:
            Public Key Algorithm: rsaEncryption
            RSA Public Key: (2048 bit)
                Modulus (2048 bit):
                    00:c2:d8:98:30:1d:98:d1:b6:25:e9:89:05:3b:48:
                    bf:55:75:fa:9a:98:e2:6e:67:e7:2b:0f:ce:07:c1:
                    73:ee:ca:99:07:6a:44:7e:19:25:68:d5:a4:61:6c:
                    e3:b6:87:9e:71:78:01:bb:0b:94:bf:a8:74:5f:56:
                    d2:79:28:55:5c:91:75:85:82:77:53:7d:93:42:4b:
                    63:f2:71:9a:a7:bb:63:05:21:bb:ab:a4:f7:29:fc:
                    17:fb:7b:e6:76:95:d9:6e:c8:2d:d3:0c:4c:42:99:
                    ae:b7:ba:4e:64:19:a9:33:6c:24:bf:ee:4a:68:70:
                    45:6c:26:b1:08:60:67:73:8c:d4:e9:f8:97:25:28:
                    97:1f:98:2a:bf:61:9f:0c:dc:e5:61:3e:be:11:b8:
                    ef:cf:75:3b:73:2f:7b:8c:8b:21:94:f7:03:b5:ee:
                    79:7d:56:c4:c8:6e:0c:4a:62:cf:bf:6c:8d:a9:38:
                    41:3d:88:53:c7:0c:01:21:b1:a1:7f:93:54:81:65:
                    79:4b:02:61:34:c7:f1:d5:c3:84:ab:68:4e:40:a8:
                    be:ca:2d:2d:d1:73:fa:d1:a7:c5:af:7a:a9:87:bc:
                    8a:83:6d:7e:23:bf:a8:e0:ad:23:1c:0b:39:ea:bf:
                    ef:d5:52:fe:08:1a:de:ea:c1:b0:6e:3d:65:46:85:
                    4b:0d
                Exponent: 65537 (0x10001)
        X509v3 extensions:
            X509v3 Basic Constraints: 
                CA:FALSE
            Netscape Comment: 
                OpenSSL Generated Certificate
            X509v3 Subject Key Identifier: 
                36:0E:AF:DD:D3:9F:C4:82:7C:AD:CA:FA:65:C6:EE:32:91:F9:EF:A9
            X509v3 Authority Key Identifier: 
                keyid:21:9C:77:94:9E:39:D3:BC:AD:14:9C:52:D9:91:A4:73:E1:54:F8:09

    Signature Algorithm: sha1WithRSAEncryption
        5a:08:be:f9:51:14:96:a8:93:00:de:e5:96:73:0c:23:58:41:
        74:28:58:9a:b1:7c:e1:10:07:72:78:73:a8:aa:ef:26:64:72:
        c0:5c:38:0a:c5:5a:45:3d:f3:47:00:4e:83:ab:d5:79:71:5c:
        ea:75:80:ba:8f:91:d5:75:53:ba:3f:7c:25:65:74:42:ae:7d:
        cc:18:c9:a3:b5:f9:05:bb:43:cd:85:b5:8a:cf:ff:c8:a4:94:
        75:e9:de:0d:aa:f1:7c:c4:bb:58:62:f8:6a:32:ad:63:97:98:
        00:c8:54:47:4c:5d:a2:b4:b5:b7:94:79:19:2c:00:19:1b:df:
        a8:f6
-----BEGIN CERTIFICATE-----
MIIDITCCAoqgAwIBAgIBATANBgkqhkiG9w0BAQUFADBVMQswCQYDVQQGEwJVUzEL
MAkGA1UECBMCV1UxDTALBgNVBAcTBEpJQU4xCzAJBgNVBAoTAldVMQswCQYDVQQL
EwJXVTEQMA4GA1UEAxMHd29vamVhbjAeFw0xNzA0MjcwNjQ2MTVaFw0yMjA0Mjcw
NjQ2MTVaMFcxCzAJBgNVBAYTAlVTMQswCQYDVQQIEwJXVTENMAsGA1UEBxMESklB
TjELMAkGA1UEChMCV1UxDTALBgNVBAsTBEpJQU4xEDAOBgNVBAMTB3dvb2plYW4w
ggEiMA0GCSqGSIb3DQEBAQUAA4IBDwAwggEKAoIBAQDC2JgwHZjRtiXpiQU7SL9V
dfqamOJuZ+crD84HwXPuypkHakR+GSVo1aRhbOO2h55xeAG7C5S/qHRfVtJ5KFVc
kXWFgndTfZNCS2PycZqnu2MFIburpPcp/Bf7e+Z2ldluyC3TDExCma63uk5kGakz
bCS/7kpocEVsJrEIYGdzjNTp+JclKJcfmCq/YZ8M3OVhPr4RuO/PdTtzL3uMiyGU
9wO17nl9VsTIbgxKYs+/bI2pOEE9iFPHDAEhsaF/k1SBZXlLAmE0x/HVw4SraE5A
qL7KLS3Rc/rRp8WveqmHvIqDbX4jv6jgrSMcCznqv+/VUv4IGt7qwbBuPWVGhUsN
AgMBAAGjezB5MAkGA1UdEwQCMAAwLAYJYIZIAYb4QgENBB8WHU9wZW5TU0wgR2Vu
ZXJhdGVkIENlcnRpZmljYXRlMB0GA1UdDgQWBBQ2Dq/d05/Egnytyvplxu4ykfnv
qTAfBgNVHSMEGDAWgBQhnHeUnjnTvK0UnFLZkaRz4VT4CTANBgkqhkiG9w0BAQUF
AAOBgQBaCL75URSWqJMA3uWWcwwjWEF0KFiasXzhEAdyeHOoqu8mZHLAXDgKxVpF
PfNHAE6Dq9V5cVzqdYC6j5HVdVO6P3wlZXRCrn3MGMmjtfkFu0PNhbWKz//IpJR1
6d4NqvF8xLtYYvhqMq1jl5gAyFRHTF2itLW3lHkZLAAZG9+o9g==
-----END CERTIFICATE-----
